target datalayout = "e-m:e-p270:32:32-p271:32:32-p272:64:64-i64:64-i128:128-f80:128-n8:16:32:64-S128"
target triple = "x86_64-pc-linux-gnu"

%"class.sls::bv_eval" = type <{ ptr, ptr, ptr, %"class.sls::bv_lookahead", %class.bv_util, %"class.sls::bv_fixed", [8 x i8], %class.ptr_vector, %class.random_gen, %"struct.sls::bv_eval::config", %class.svector.7, i32, i32, %class.svector.9, %class.svector.11, %class.scoped_ptr_vector, %"class.sls::bvect", %"class.sls::bvect", %"class.sls::bvect", %"class.sls::bvect", %"class.sls::bvect", %"class.sls::bvect", %"class.sls::bvect", %"class.sls::bvect", %"class.sls::bvect", %"class.sls::bvect", %"class.sls::bvect", %"class.sls::bvect", %"class.sls::bvect", i8, [7 x i8] }>
%"class.sls::bv_lookahead" = type { %class.bv_util, ptr, ptr, ptr, %"struct.sls::bv_lookahead::config", %"struct.sls::bv_lookahead::stats", %"class.sls::bvect", %"class.sls::bvect", %class.ptr_vector, %class.svector.1, %class.vector.3, %class.obj_mark, double, double, %"class.sls::bvect", ptr, ptr, %class.ptr_vector, %class.vector.4, %class.obj_mark, i32, %class.tracked_uint_set, i32, i32 }
%"struct.sls::bv_lookahead::config" = type <{ i8, [7 x i8], double, i32, i32, i8, i8, i8, i8, i32, i32, i32, i32, i8, [3 x i8], i32, i32, i32, i8, [3 x i8], double, double, i8, [7 x i8], double, i8, i8, i8, [5 x i8] }>
%"struct.sls::bv_lookahead::stats" = type { i32, i32, i32, i32, i32, i32 }
%class.svector.1 = type { %class.vector.2 }
%class.vector.2 = type { ptr }
%class.vector.3 = type { ptr }
%class.vector.4 = type { ptr }
%class.obj_mark = type { [8 x i8], %class.bit_vector }
%class.bit_vector = type { i32, i32, ptr }
%class.tracked_uint_set = type { %class.svector.5, %class.svector }
%class.svector.5 = type { %class.vector.6 }
%class.vector.6 = type { ptr }
%class.svector = type { %class.vector }
%class.vector = type { ptr }
%class.bv_util = type { %class.bv_recognizers, ptr, ptr }
%class.bv_recognizers = type { i32 }
%"class.sls::bv_fixed" = type { ptr, ptr, ptr, ptr, ptr }
%class.ptr_vector = type { %class.vector.0 }
%class.vector.0 = type { ptr }
%class.random_gen = type { i32 }
%"struct.sls::bv_eval::config" = type { i32 }
%class.svector.7 = type { %class.vector.8 }
%class.vector.8 = type { ptr }
%class.svector.9 = type { %class.vector.10 }
%class.vector.10 = type { ptr }
%class.svector.11 = type { %class.vector.12 }
%class.vector.12 = type { ptr }
%class.scoped_ptr_vector = type { %class.ptr_vector.13 }
%class.ptr_vector.13 = type { %class.vector.14 }
%class.vector.14 = type { ptr }
%"class.sls::bvect" = type <{ %class.svector, i32, i32, i32, [4 x i8] }>
%"class.sls::bv_valuation" = type { %"class.sls::bvect", %"class.sls::bvect", %"class.sls::bvect", %"class.sls::bvect", %"class.sls::bvect", %"class.sls::bvect", i32, i32, i32, i32, %"class.sls::bvect" }

; Function Attrs: mustprogress uwtable
define linkonce_odr hidden void @_ZNK3sls12bv_valuation19clear_overflow_bitsERNS_5bvectE(ptr noundef nonnull align 8 dereferenceable(184) %0, ptr noundef nonnull align 8 dereferenceable(20) %1) #4 comdat align 2 {
  %3 = alloca ptr, align 8
  %4 = alloca ptr, align 8
  store ptr %0, ptr %3, align 8, !tbaa !122
  store ptr %1, ptr %4, align 8, !tbaa !110
  %5 = load ptr, ptr %3, align 8
  %6 = getelementptr inbounds nuw %"class.sls::bv_valuation", ptr %5, i32 0, i32 7
  %7 = load i32, ptr %6, align 4, !tbaa !237
  %8 = load ptr, ptr %4, align 8, !tbaa !110
  %9 = getelementptr inbounds nuw %"class.sls::bv_valuation", ptr %5, i32 0, i32 9
  %10 = load i32, ptr %9, align 4, !tbaa !128
  %11 = sub i32 %10, 1
  %12 = call noundef nonnull align 4 dereferenceable(4) ptr @_ZN6vectorIjLb0EjEixEj(ptr noundef nonnull align 8 dereferenceable(8) %8, i32 noundef %11)
  %13 = load i32, ptr %12, align 4, !tbaa !97
  %14 = and i32 %13, %7
  store i32 %14, ptr %12, align 4, !tbaa !97
  ret void
}

; Function Attrs: mustprogress nounwind uwtable
define linkonce_odr hidden noundef nonnull align 4 dereferenceable(4) ptr @_ZN6vectorIjLb0EjEixEj(ptr noundef nonnull align 8 dereferenceable(8) %0, i32 noundef %1) #5 comdat align 2 {
  %3 = alloca ptr, align 8
  %4 = alloca i32, align 4
  store ptr %0, ptr %3, align 8, !tbaa !149
  store i32 %1, ptr %4, align 4, !tbaa !97
  %5 = load ptr, ptr %3, align 8
  %6 = getelementptr inbounds nuw %class.vector, ptr %5, i32 0, i32 0
  %7 = load ptr, ptr %6, align 8, !tbaa !151
  %8 = load i32, ptr %4, align 4, !tbaa !97
  %9 = zext i32 %8 to i64
  %10 = getelementptr inbounds nuw i32, ptr %7, i64 %9
  ret ptr %10
}

; Function Attrs: mustprogress nounwind uwtable
define linkonce_odr hidden noundef nonnull align 4 dereferenceable(4) ptr @_ZNK6vectorIjLb0EjEixEj(ptr noundef nonnull align 8 dereferenceable(8) %0, i32 noundef %1) #5 comdat align 2 {
  %3 = alloca ptr, align 8
  %4 = alloca i32, align 4
  store ptr %0, ptr %3, align 8, !tbaa !149
  store i32 %1, ptr %4, align 4, !tbaa !97
  %5 = load ptr, ptr %3, align 8
  %6 = getelementptr inbounds nuw %class.vector, ptr %5, i32 0, i32 0
  %7 = load ptr, ptr %6, align 8, !tbaa !151
  %8 = load i32, ptr %4, align 4, !tbaa !97
  %9 = zext i32 %8 to i64
  %10 = getelementptr inbounds nuw i32, ptr %7, i64 %9
  ret ptr %10
}

; Function Attrs: mustprogress uwtable
define linkonce_odr hidden void @_ZN3sls12bv_valuation3setERKNS_5bvectE(ptr noundef nonnull align 8 dereferenceable(184) %0, ptr noundef nonnull align 8 dereferenceable(20) %1) #4 comdat align 2 {
  %3 = alloca ptr, align 8
  %4 = alloca ptr, align 8
  %5 = alloca i32, align 4
  store ptr %0, ptr %3, align 8, !tbaa !122
  store ptr %1, ptr %4, align 8, !tbaa !110
  %6 = load ptr, ptr %3, align 8
  call void @llvm.lifetime.start.p0(i64 4, ptr %5) #3
  %7 = getelementptr inbounds nuw %"class.sls::bv_valuation", ptr %6, i32 0, i32 9
  %8 = load i32, ptr %7, align 4, !tbaa !128
  store i32 %8, ptr %5, align 4, !tbaa !97
  br label %9

9:                                                ; preds = %14, %2
  %10 = load i32, ptr %5, align 4, !tbaa !97
  %11 = add i32 %10, -1
  store i32 %11, ptr %5, align 4, !tbaa !97
  %12 = icmp ugt i32 %10, 0
  br i1 %12, label %14, label %13

13:                                               ; preds = %9
  call void @llvm.lifetime.end.p0(i64 4, ptr %5) #3
  br label %22

14:                                               ; preds = %9
  %15 = load ptr, ptr %4, align 8, !tbaa !110
  %16 = load i32, ptr %5, align 4, !tbaa !97
  %17 = call noundef nonnull align 4 dereferenceable(4) ptr @_ZNK6vectorIjLb0EjEixEj(ptr noundef nonnull align 8 dereferenceable(8) %15, i32 noundef %16)
  %18 = load i32, ptr %17, align 4, !tbaa !97
  %19 = getelementptr inbounds nuw %"class.sls::bv_valuation", ptr %6, i32 0, i32 10
  %20 = load i32, ptr %5, align 4, !tbaa !97
  %21 = call noundef nonnull align 4 dereferenceable(4) ptr @_ZN6vectorIjLb0EjEixEj(ptr noundef nonnull align 8 dereferenceable(8) %19, i32 noundef %20)
  store i32 %18, ptr %21, align 4, !tbaa !97
  br label %9, !llvm.loop !229

22:                                               ; preds = %13
  %23 = getelementptr inbounds nuw %"class.sls::bv_valuation", ptr %6, i32 0, i32 10
  call void @_ZNK3sls12bv_valuation19clear_overflow_bitsERNS_5bvectE(ptr noundef nonnull align 8 dereferenceable(184) %6, ptr noundef nonnull align 8 dereferenceable(20) %23)
  ret void
}

; Function Attrs: mustprogress uwtable
define linkonce_odr hidden noundef nonnull align 4 dereferenceable(4) ptr @_ZN3sls5bvect12get_bit_wordEj(ptr noundef nonnull align 8 dereferenceable(20) %0, i32 noundef %1) #4 comdat align 2 {
  %3 = alloca ptr, align 8
  %4 = alloca i32, align 4
  store ptr %0, ptr %3, align 8, !tbaa !110
  store i32 %1, ptr %4, align 4, !tbaa !97
  %5 = load ptr, ptr %3, align 8
  %6 = load i32, ptr %4, align 4, !tbaa !97
  %7 = zext i32 %6 to i64
  %8 = udiv i64 %7, 32
  %9 = trunc i64 %8 to i32
  %10 = call noundef nonnull align 4 dereferenceable(4) ptr @_ZN6vectorIjLb0EjEixEj(ptr noundef nonnull align 8 dereferenceable(8) %5, i32 noundef %9)
  ret ptr %10
}

; Function Attrs: mustprogress nounwind uwtable
define linkonce_odr hidden noundef i32 @_ZN3sls5bvect12get_pos_maskEj(i32 noundef %0) #5 comdat align 2 {
  %2 = alloca i32, align 4
  store i32 %0, ptr %2, align 4, !tbaa !97
  %3 = load i32, ptr %2, align 4, !tbaa !97
  %4 = zext i32 %3 to i64
  %5 = urem i64 %4, 32
  %6 = trunc i64 %5 to i32
  %7 = shl i32 1, %6
  ret i32 %7
}

; Function Attrs: mustprogress uwtable
define linkonce_odr hidden noundef i32 @_ZNK3sls5bvect12get_bit_wordEj(ptr noundef nonnull align 8 dereferenceable(20) %0, i32 noundef %1) #4 comdat align 2 {
  %3 = alloca ptr, align 8
  %4 = alloca i32, align 4
  store ptr %0, ptr %3, align 8, !tbaa !110
  store i32 %1, ptr %4, align 4, !tbaa !97
  %5 = load ptr, ptr %3, align 8
  %6 = load i32, ptr %4, align 4, !tbaa !97
  %7 = zext i32 %6 to i64
  %8 = udiv i64 %7, 32
  %9 = trunc i64 %8 to i32
  %10 = call noundef nonnull align 4 dereferenceable(4) ptr @_ZNK6vectorIjLb0EjEixEj(ptr noundef nonnull align 8 dereferenceable(8) %5, i32 noundef %9)
  %11 = load i32, ptr %10, align 4, !tbaa !97
  ret i32 %11
}

; Function Attrs: mustprogress uwtable
define linkonce_odr hidden noundef zeroext i1 @_ZN3sls12bv_valuation7try_setERKNS_5bvectE(ptr noundef nonnull align 8 dereferenceable(184) %0, ptr noundef nonnull align 8 dereferenceable(20) %1) #4 comdat align 2 {
  %3 = alloca i1, align 1
  %4 = alloca ptr, align 8
  %5 = alloca ptr, align 8
  store ptr %0, ptr %4, align 8, !tbaa !122
  store ptr %1, ptr %5, align 8, !tbaa !110
  %6 = load ptr, ptr %4, align 8
  %7 = load ptr, ptr %5, align 8, !tbaa !110
  %8 = call noundef zeroext i1 @_ZNK3sls12bv_valuation7can_setERKNS_5bvectE(ptr noundef nonnull align 8 dereferenceable(184) %6, ptr noundef nonnull align 8 dereferenceable(20) %7)
  br i1 %8, label %10, label %9

9:                                                ; preds = %2
  store i1 false, ptr %3, align 1
  br label %12

10:                                               ; preds = %2
  %11 = load ptr, ptr %5, align 8, !tbaa !110
  call void @_ZN3sls12bv_valuation3setERKNS_5bvectE(ptr noundef nonnull align 8 dereferenceable(184) %6, ptr noundef nonnull align 8 dereferenceable(20) %11)
  store i1 true, ptr %3, align 1
  br label %12

12:                                               ; preds = %10, %9
  %13 = load i1, ptr %3, align 1
  ret i1 %13
}

; Function Attrs: mustprogress uwtable
define linkonce_odr hidden void @_ZN3sls5bvect3setEjb(ptr noundef nonnull align 8 dereferenceable(20) %0, i32 noundef %1, i1 noundef zeroext %2) #4 comdat align 2 {
  %4 = alloca ptr, align 8
  %5 = alloca i32, align 4
  %6 = alloca i8, align 1
  %7 = alloca i32, align 4
  store ptr %0, ptr %4, align 8, !tbaa !110
  store i32 %1, ptr %5, align 4, !tbaa !97
  %8 = zext i1 %2 to i8
  store i8 %8, ptr %6, align 1, !tbaa !133
  %9 = load ptr, ptr %4, align 8
  call void @llvm.lifetime.start.p0(i64 4, ptr %7) #3
  %10 = load i8, ptr %6, align 1, !tbaa !133, !range !134, !noundef !135
  %11 = trunc i8 %10 to i1
  %12 = zext i1 %11 to i32
  %13 = sub i32 0, %12
  store i32 %13, ptr %7, align 4, !tbaa !97
  %14 = load i32, ptr %7, align 4, !tbaa !97
  %15 = load i32, ptr %5, align 4, !tbaa !97
  %16 = call noundef nonnull align 4 dereferenceable(4) ptr @_ZN3sls5bvect12get_bit_wordEj(ptr noundef nonnull align 8 dereferenceable(20) %9, i32 noundef %15)
  %17 = load i32, ptr %16, align 4, !tbaa !97
  %18 = xor i32 %14, %17
  %19 = load i32, ptr %5, align 4, !tbaa !97
  %20 = call noundef i32 @_ZN3sls5bvect12get_pos_maskEj(i32 noundef %19)
  %21 = and i32 %18, %20
  %22 = load i32, ptr %5, align 4, !tbaa !97
  %23 = call noundef nonnull align 4 dereferenceable(4) ptr @_ZN3sls5bvect12get_bit_wordEj(ptr noundef nonnull align 8 dereferenceable(20) %9, i32 noundef %22)
  %24 = load i32, ptr %23, align 4, !tbaa !97
  %25 = xor i32 %24, %21
  store i32 %25, ptr %23, align 4, !tbaa !97
  call void @llvm.lifetime.end.p0(i64 4, ptr %7) #3
  ret void
}

; Function Attrs: mustprogress uwtable
define linkonce_odr hidden noundef zeroext i1 @_ZNK3sls5bvect3getEj(ptr noundef nonnull align 8 dereferenceable(20) %0, i32 noundef %1) #4 comdat align 2 {
  %3 = alloca ptr, align 8
  %4 = alloca i32, align 4
  store ptr %0, ptr %3, align 8, !tbaa !110
  store i32 %1, ptr %4, align 4, !tbaa !97
  %5 = load ptr, ptr %3, align 8
  %6 = load i32, ptr %4, align 4, !tbaa !97
  %7 = call noundef i32 @_ZNK3sls5bvect12get_bit_wordEj(ptr noundef nonnull align 8 dereferenceable(20) %5, i32 noundef %6)
  %8 = load i32, ptr %4, align 4, !tbaa !97
  %9 = call noundef i32 @_ZN3sls5bvect12get_pos_maskEj(i32 noundef %8)
  %10 = and i32 %7, %9
  %11 = icmp ne i32 %10, 0
  ret i1 %11
}

; Function Attrs: mustprogress uwtable
define hidden noundef zeroext i1 @_ZN3sls7bv_eval18try_repair_extractERKNS_5bvectERNS_12bv_valuationEj(ptr noundef nonnull align 8 dereferenceable(865) %0, ptr noundef nonnull align 8 dereferenceable(20) %1, ptr noundef nonnull align 8 dereferenceable(184) %2, i32 noundef %3) #4 align 2 {
  %5 = alloca i1, align 1
  %6 = alloca ptr, align 8
  %7 = alloca ptr, align 8
  %8 = alloca ptr, align 8
  %9 = alloca i32, align 4
  %10 = alloca i32, align 4
  %11 = alloca i8, align 1
  store ptr %0, ptr %6, align 8, !tbaa !3
  store ptr %1, ptr %7, align 8, !tbaa !110
  store ptr %2, ptr %8, align 8, !tbaa !122
  store i32 %3, ptr %9, align 4, !tbaa !97
  %12 = load ptr, ptr %6, align 8
  %13 = load ptr, ptr %8, align 8, !tbaa !122
  %14 = getelementptr inbounds nuw %"class.sls::bv_eval", ptr %12, i32 0, i32 16
  call void @_ZNK3sls12bv_valuation3getERNS_5bvectE(ptr noundef nonnull align 8 dereferenceable(184) %13, ptr noundef nonnull align 8 dereferenceable(20) %14)
  call void @llvm.lifetime.start.p0(i64 4, ptr %10) #3
  store i32 0, ptr %10, align 4, !tbaa !97
  br label %15

15:                                               ; preds = %30, %4
  %16 = load i32, ptr %10, align 4, !tbaa !97
  %17 = load ptr, ptr %7, align 8, !tbaa !110
  %18 = getelementptr inbounds nuw %"class.sls::bvect", ptr %17, i32 0, i32 1
  %19 = load i32, ptr %18, align 8, !tbaa !112
  %20 = icmp ult i32 %16, %19
  br i1 %20, label %22, label %21

21:                                               ; preds = %15
  call void @llvm.lifetime.end.p0(i64 4, ptr %10) #3
  br label %33

22:                                               ; preds = %15
  %23 = getelementptr inbounds nuw %"class.sls::bv_eval", ptr %12, i32 0, i32 16
  %24 = load i32, ptr %10, align 4, !tbaa !97
  %25 = load i32, ptr %9, align 4, !tbaa !97
  %26 = add i32 %24, %25
  %27 = load ptr, ptr %7, align 8, !tbaa !110
  %28 = load i32, ptr %10, align 4, !tbaa !97
  %29 = call noundef zeroext i1 @_ZNK3sls5bvect3getEj(ptr noundef nonnull align 8 dereferenceable(20) %27, i32 noundef %28)
  call void @_ZN3sls5bvect3setEjb(ptr noundef nonnull align 8 dereferenceable(20) %23, i32 noundef %26, i1 noundef zeroext %29)
  br label %30

30:                                               ; preds = %22
  %31 = load i32, ptr %10, align 4, !tbaa !97
  %32 = add i32 %31, 1
  store i32 %32, ptr %10, align 4, !tbaa !97
  br label %15, !llvm.loop !297

33:                                               ; preds = %21
  %34 = getelementptr inbounds nuw %"class.sls::bv_eval", ptr %12, i32 0, i32 16
  %35 = load ptr, ptr %8, align 8, !tbaa !122
  %36 = getelementptr inbounds nuw %"class.sls::bv_valuation", ptr %35, i32 0, i32 8
  %37 = load i32, ptr %36, align 8, !tbaa !124
  call void @_ZN3sls5bvect6set_bwEj(ptr noundef nonnull align 8 dereferenceable(20) %34, i32 noundef %37)
  %38 = load ptr, ptr %8, align 8, !tbaa !122
  %39 = getelementptr inbounds nuw %"class.sls::bv_eval", ptr %12, i32 0, i32 16
  %40 = call noundef zeroext i1 @_ZN3sls12bv_valuation7try_setERKNS_5bvectE(ptr noundef nonnull align 8 dereferenceable(184) %38, ptr noundef nonnull align 8 dereferenceable(20) %39)
  br i1 %40, label %41, label %42

41:                                               ; preds = %33
  store i1 true, ptr %5, align 1
  br label %49

42:                                               ; preds = %33
  call void @llvm.lifetime.start.p0(i64 1, ptr %11) #3
  %43 = load ptr, ptr %8, align 8, !tbaa !122
  %44 = getelementptr inbounds nuw %"class.sls::bv_eval", ptr %12, i32 0, i32 8
  %45 = call noundef zeroext i1 @_ZN3sls12bv_valuation10set_randomER10random_gen(ptr noundef nonnull align 8 dereferenceable(184) %43, ptr noundef nonnull align 4 dereferenceable(4) %44)
  %46 = zext i1 %45 to i8
  store i8 %46, ptr %11, align 1, !tbaa !133
  %47 = load i8, ptr %11, align 1, !tbaa !133, !range !134, !noundef !135
  %48 = trunc i8 %47 to i1
  store i1 %48, ptr %5, align 1
  call void @llvm.lifetime.end.p0(i64 1, ptr %11) #3
  br label %49

49:                                               ; preds = %42, %41
  %50 = load i1, ptr %5, align 1
  ret i1 %50
}