; Function Attrs: mustprogress uwtable
define hidden noundef zeroext i1 @_ZN3sls7bv_eval18try_repair_extractERKNS_5bvectERNS_12bv_valuationEj(ptr noundef nonnull align 8 dereferenceable(865) %0, ptr noundef nonnull readonly align 8 captures(none) dereferenceable(20) %1, ptr noundef nonnull align 8 dereferenceable(184) %2, i32 noundef %3) local_unnamed_addr #3 align 2 {
  %5 = getelementptr inbounds nuw i8, ptr %0, i64 552
  tail call void @_ZNK3sls12bv_valuation3getERNS_5bvectE(ptr noundef nonnull align 8 dereferenceable(184) %2, ptr noundef nonnull align 8 dereferenceable(20) %5)
  %6 = getelementptr inbounds nuw i8, ptr %1, i64 8
  %7 = load i32, ptr %6, align 8, !tbaa !236
  %.not = icmp eq i32 %7, 0
  br i1 %.not, label %._crit_edge, label %.lr.ph

.lr.ph:                                           ; preds = %4
  %8 = load ptr, ptr %1, align 8, !tbaa !97
  %9 = load ptr, ptr %5, align 8, !tbaa !97
  br label %34

._crit_edge:                                      ; preds = %34, %4
  %10 = getelementptr inbounds nuw i8, ptr %2, i64 152
  %11 = load i32, ptr %10, align 8, !tbaa !128
  tail call void @_ZN3sls5bvect6set_bwEj(ptr noundef nonnull align 8 dereferenceable(20) %5, i32 noundef %11)
  %12 = tail call noundef zeroext i1 @_ZNK3sls12bv_valuation7can_setERKNS_5bvectE(ptr noundef nonnull align 8 dereferenceable(184) %2, ptr noundef nonnull align 8 dereferenceable(20) %5)
  br i1 %12, label %13, label %_ZN3sls12bv_valuation7try_setERKNS_5bvectE.exit

13:                                               ; preds = %._crit_edge
  %14 = getelementptr inbounds nuw i8, ptr %2, i64 156
  %15 = load i32, ptr %14, align 4, !tbaa !131
  %.not4.i.i = icmp eq i32 %15, 0
  br i1 %.not4.i.i, label %.._crit_edge_crit_edge.i.i, label %.lr.ph.i.i

.._crit_edge_crit_edge.i.i:                       ; preds = %13
  %.phi.trans.insert.i.i = getelementptr inbounds nuw i8, ptr %2, i64 160
  %.pre7.i.i = load ptr, ptr %.phi.trans.insert.i.i, align 8, !tbaa !97
  br label %_ZN3sls12bv_valuation7try_setERKNS_5bvectE.exit.thread

.lr.ph.i.i:                                       ; preds = %13
  %16 = load ptr, ptr %5, align 8, !tbaa !97
  %17 = getelementptr inbounds nuw i8, ptr %2, i64 160
  %18 = load ptr, ptr %17, align 8, !tbaa !97
  %19 = zext i32 %15 to i64
  br label %22

._crit_edge.loopexit.i.i:                         ; preds = %22
  %.pre.i.i = load i32, ptr %14, align 4, !tbaa !131
  %20 = add i32 %.pre.i.i, -1
  %21 = zext i32 %20 to i64
  br label %_ZN3sls12bv_valuation7try_setERKNS_5bvectE.exit.thread

22:                                               ; preds = %22, %.lr.ph.i.i
  %indvars.iv.i.i = phi i64 [ %19, %.lr.ph.i.i ], [ %23, %22 ]
  %23 = add nsw i64 %indvars.iv.i.i, -1
  %24 = getelementptr inbounds nuw i32, ptr %16, i64 %23
  %25 = load i32, ptr %24, align 4, !tbaa !102
  %26 = getelementptr inbounds nuw i32, ptr %18, i64 %23
  store i32 %25, ptr %26, align 4, !tbaa !102
  %.not.wide.i.i = icmp eq i64 %23, 0
  br i1 %.not.wide.i.i, label %._crit_edge.loopexit.i.i, label %22, !llvm.loop !175

_ZN3sls12bv_valuation7try_setERKNS_5bvectE.exit.thread: ; preds = %.._crit_edge_crit_edge.i.i, %._crit_edge.loopexit.i.i
  %27 = phi ptr [ %18, %._crit_edge.loopexit.i.i ], [ %.pre7.i.i, %.._crit_edge_crit_edge.i.i ]
  %28 = phi i64 [ %21, %._crit_edge.loopexit.i.i ], [ 4294967295, %.._crit_edge_crit_edge.i.i ]
  %29 = getelementptr inbounds nuw i8, ptr %2, i64 148
  %30 = load i32, ptr %29, align 4, !tbaa !157
  %31 = getelementptr inbounds nuw i32, ptr %27, i64 %28
  %32 = load i32, ptr %31, align 4, !tbaa !102
  %33 = and i32 %32, %30
  store i32 %33, ptr %31, align 4, !tbaa !102
  br label %58

34:                                               ; preds = %.lr.ph, %34
  %.01314 = phi i32 [ 0, %.lr.ph ], [ %53, %34 ]
  %35 = add i32 %.01314, %3
  %36 = lshr i32 %.01314, 5
  %37 = zext nneg i32 %36 to i64
  %38 = getelementptr inbounds nuw i32, ptr %8, i64 %37
  %39 = load i32, ptr %38, align 4, !tbaa !102
  %40 = and i32 %.01314, 31
  %41 = shl nuw i32 1, %40
  %42 = and i32 %39, %41
  %43 = icmp ne i32 %42, 0
  %.neg.i = sext i1 %43 to i32
  %44 = lshr i32 %35, 5
  %45 = zext nneg i32 %44 to i64
  %46 = getelementptr inbounds nuw i32, ptr %9, i64 %45
  %47 = load i32, ptr %46, align 4, !tbaa !102
  %48 = xor i32 %47, %.neg.i
  %49 = and i32 %35, 31
  %50 = shl nuw i32 1, %49
  %51 = and i32 %48, %50
  %52 = xor i32 %51, %47
  store i32 %52, ptr %46, align 4, !tbaa !102
  %53 = add nuw i32 %.01314, 1
  %54 = load i32, ptr %6, align 8, !tbaa !236
  %55 = icmp ult i32 %53, %54
  br i1 %55, label %34, label %._crit_edge, !llvm.loop !284

_ZN3sls12bv_valuation7try_setERKNS_5bvectE.exit:  ; preds = %._crit_edge
  %56 = getelementptr inbounds nuw i8, ptr %0, i64 504
  %57 = tail call noundef zeroext i1 @_ZN3sls12bv_valuation10set_randomER10random_gen(ptr noundef nonnull align 8 dereferenceable(184) %2, ptr noundef nonnull align 4 dereferenceable(4) %56)
  br label %58

58:                                               ; preds = %_ZN3sls12bv_valuation7try_setERKNS_5bvectE.exit.thread, %_ZN3sls12bv_valuation7try_setERKNS_5bvectE.exit
  %.0 = phi i1 [ %57, %_ZN3sls12bv_valuation7try_setERKNS_5bvectE.exit ], [ true, %_ZN3sls12bv_valuation7try_setERKNS_5bvectE.exit.thread ]
  ret i1 %.0
}